; Function Attrs: mustprogress nounwind uwtable
define internal void @_ZNSt15_Sp_counted_ptrIPN12_GLOBAL__N_126TypeForHolderWithAddressOfELN9__gnu_cxx12_Lock_policyE2EE10_M_disposeEv(ptr nocapture noundef nonnull readonly align 8 dereferenceable(24) %0) unnamed_addr #0 align 2 {
  %2 = getelementptr inbounds i8, ptr %0, i64 16
  %3 = load ptr, ptr %2, align 8
  %4 = icmp eq ptr %3, null
  br i1 %4, label %6, label %5

5:                                                ; preds = %1
  tail call fastcc void @_ZN12_GLOBAL__N_126TypeForHolderWithAddressOfD2Ev(ptr noundef nonnull align 4 dereferenceable(4) %3) #28
  tail call void @_ZdlPv(ptr noundef nonnull %3) #33
  br label %6

6:                                                ; preds = %5, %1
  ret void
}